target datalayout = "e-m:e-p270:32:32-p271:32:32-p272:64:64-i64:64-i128:128-f80:128-n8:16:32:64-S128"
target triple = "x86_64-pc-linux-gnu"

%struct.JNINativeInterface_ = type { ptr, ptr, ptr, ptr, ptr, ptr, ptr, ptr, ptr, ptr, ptr, ptr, ptr, ptr, ptr, ptr, ptr, ptr, ptr, ptr, ptr, ptr, ptr, ptr, ptr, ptr, ptr, ptr, ptr, ptr, ptr, ptr, ptr, ptr, ptr, ptr, ptr, ptr, ptr, ptr, ptr, ptr, ptr, ptr, ptr, ptr, ptr, ptr, ptr, ptr, ptr, ptr, ptr, ptr, ptr, ptr, ptr, ptr, ptr, ptr, ptr, ptr, ptr, ptr, ptr, ptr, ptr, ptr, ptr, ptr, ptr, ptr, ptr, ptr, ptr, ptr, ptr, ptr, ptr, ptr, ptr, ptr, ptr, ptr, ptr, ptr, ptr, ptr, ptr, ptr, ptr, ptr, ptr, ptr, ptr, ptr, ptr, ptr, ptr, ptr, ptr, ptr, ptr, ptr, ptr, ptr, ptr, ptr, ptr, ptr, ptr, ptr, ptr, ptr, ptr, ptr, ptr, ptr, ptr, ptr, ptr, ptr, ptr, ptr, ptr, ptr, ptr, ptr, ptr, ptr, ptr, ptr, ptr, ptr, ptr, ptr, ptr, ptr, ptr, ptr, ptr, ptr, ptr, ptr, ptr, ptr, ptr, ptr, ptr, ptr, ptr, ptr, ptr, ptr, ptr, ptr, ptr, ptr, ptr, ptr, ptr, ptr, ptr, ptr, ptr, ptr, ptr, ptr, ptr, ptr, ptr, ptr, ptr, ptr, ptr, ptr, ptr, ptr, ptr, ptr, ptr, ptr, ptr, ptr, ptr, ptr, ptr, ptr, ptr, ptr, ptr, ptr, ptr, ptr, ptr, ptr, ptr, ptr, ptr, ptr, ptr, ptr, ptr, ptr, ptr, ptr, ptr, ptr, ptr, ptr, ptr, ptr, ptr, ptr, ptr, ptr, ptr, ptr, ptr, ptr, ptr, ptr, ptr, ptr, ptr, ptr, ptr, ptr, ptr, ptr, ptr, ptr, ptr, ptr, ptr }
%struct.CK_SSL3_RANDOM_DATA = type { ptr, i64, ptr, i64 }
%struct.CK_SSL3_MASTER_KEY_DERIVE_PARAMS = type { %struct.CK_SSL3_RANDOM_DATA, ptr }

@.str.28 = private unnamed_addr constant [61 x i8] c"sun/security/pkcs11/wrapper/CK_SSL3_MASTER_KEY_DERIVE_PARAMS\00", align 1

; Function Attrs: nounwind uwtable
define hidden ptr @jSsl3MasterKeyDeriveParamToCKSsl3MasterKeyDeriveParamPtr(ptr noundef %0, ptr noundef %1, ptr noundef %2) #0 {
  %4 = alloca ptr, align 8
  %5 = alloca ptr, align 8
  %6 = alloca ptr, align 8
  %7 = alloca ptr, align 8
  %8 = alloca ptr, align 8
  %9 = alloca ptr, align 8
  store ptr %0, ptr %5, align 8
  store ptr %1, ptr %6, align 8
  store ptr %2, ptr %7, align 8
  %10 = load ptr, ptr %7, align 8
  %11 = icmp ne ptr %10, null
  br i1 %11, label %12, label %14

12:                                               ; preds = %3
  %13 = load ptr, ptr %7, align 8
  store i64 0, ptr %13, align 8
  br label %14

14:                                               ; preds = %12, %3
  %15 = call noalias ptr @calloc(i64 noundef 1, i64 noundef 40) #6
  store ptr %15, ptr %8, align 8
  %16 = load ptr, ptr %8, align 8
  %17 = icmp eq ptr %16, null
  br i1 %17, label %18, label %20

18:                                               ; preds = %14
  %19 = load ptr, ptr %5, align 8
  call void @p11ThrowOutOfMemoryError(ptr noundef %19, ptr noundef null)
  store ptr null, ptr %4, align 8
  br label %55

20:                                               ; preds = %14
  %21 = load ptr, ptr %5, align 8
  %22 = load ptr, ptr %21, align 8
  %23 = getelementptr inbounds %struct.JNINativeInterface_, ptr %22, i32 0, i32 6
  %24 = load ptr, ptr %23, align 8
  %25 = load ptr, ptr %5, align 8
  %26 = call ptr %24(ptr noundef %25, ptr noundef @.str.28)
  store ptr %26, ptr %9, align 8
  %27 = load ptr, ptr %9, align 8
  %28 = icmp eq ptr %27, null
  br i1 %28, label %29, label %30

29:                                               ; preds = %20
  br label %53

30:                                               ; preds = %20
  %31 = load ptr, ptr %5, align 8
  %32 = load ptr, ptr %6, align 8
  %33 = load ptr, ptr %9, align 8
  %34 = load ptr, ptr %8, align 8
  %35 = getelementptr inbounds %struct.CK_SSL3_MASTER_KEY_DERIVE_PARAMS, ptr %34, i32 0, i32 1
  %36 = load ptr, ptr %8, align 8
  %37 = getelementptr inbounds %struct.CK_SSL3_MASTER_KEY_DERIVE_PARAMS, ptr %36, i32 0, i32 0
  call void @masterKeyDeriveParamToCKMasterKeyDeriveParam(ptr noundef %31, ptr noundef %32, ptr noundef %33, ptr noundef %35, ptr noundef %37)
  %38 = load ptr, ptr %5, align 8
  %39 = load ptr, ptr %38, align 8
  %40 = getelementptr inbounds %struct.JNINativeInterface_, ptr %39, i32 0, i32 228
  %41 = load ptr, ptr %40, align 8
  %42 = load ptr, ptr %5, align 8
  %43 = call zeroext i8 %41(ptr noundef %42)
  %44 = icmp ne i8 %43, 0
  br i1 %44, label %45, label %46

45:                                               ; preds = %30
  br label %53

46:                                               ; preds = %30
  %47 = load ptr, ptr %7, align 8
  %48 = icmp ne ptr %47, null
  br i1 %48, label %49, label %51

49:                                               ; preds = %46
  %50 = load ptr, ptr %7, align 8
  store i64 40, ptr %50, align 8
  br label %51

51:                                               ; preds = %49, %46
  %52 = load ptr, ptr %8, align 8
  store ptr %52, ptr %4, align 8
  br label %55

53:                                               ; preds = %45, %29
  %54 = load ptr, ptr %8, align 8
  call void @free(ptr noundef %54) #7
  store ptr null, ptr %4, align 8
  br label %55

55:                                               ; preds = %53, %51, %18
  %56 = load ptr, ptr %4, align 8
  ret ptr %56
}