; Function Attrs: nounwind uwtable
define hidden noundef ptr @jSsl3MasterKeyDeriveParamToCKSsl3MasterKeyDeriveParamPtr(ptr noundef %0, ptr noundef %1, ptr noundef writeonly %2) local_unnamed_addr #0 {
  %.not = icmp eq ptr %2, null
  br i1 %.not, label %5, label %4

4:                                                ; preds = %3
  store i64 0, ptr %2, align 8
  br label %5

5:                                                ; preds = %4, %3
  %6 = tail call noalias dereferenceable_or_null(40) ptr @calloc(i64 noundef 1, i64 noundef 40) #9
  %7 = icmp eq ptr %6, null
  br i1 %7, label %8, label %9

8:                                                ; preds = %5
  tail call void @p11ThrowOutOfMemoryError(ptr noundef %0, ptr noundef null) #8
  br label %24

9:                                                ; preds = %5
  %10 = load ptr, ptr %0, align 8
  %11 = getelementptr inbounds i8, ptr %10, i64 48
  %12 = load ptr, ptr %11, align 8
  %13 = tail call ptr %12(ptr noundef nonnull %0, ptr noundef nonnull @.str.28) #8
  %14 = icmp eq ptr %13, null
  br i1 %14, label %23, label %15

15:                                               ; preds = %9
  %16 = getelementptr inbounds i8, ptr %6, i64 32
  tail call void @masterKeyDeriveParamToCKMasterKeyDeriveParam(ptr noundef nonnull %0, ptr noundef %1, ptr noundef nonnull %13, ptr noundef nonnull %16, ptr noundef nonnull %6)
  %17 = load ptr, ptr %0, align 8
  %18 = getelementptr inbounds i8, ptr %17, i64 1824
  %19 = load ptr, ptr %18, align 8
  %20 = tail call zeroext i8 %19(ptr noundef nonnull %0) #8
  %.not22 = icmp eq i8 %20, 0
  br i1 %.not22, label %21, label %23

21:                                               ; preds = %15
  br i1 %.not, label %24, label %22

22:                                               ; preds = %21
  store i64 40, ptr %2, align 8
  br label %24

23:                                               ; preds = %15, %9
  tail call void @free(ptr noundef nonnull %6) #8
  br label %24

24:                                               ; preds = %21, %22, %23, %8
  %.0 = phi ptr [ null, %8 ], [ null, %23 ], [ %6, %22 ], [ %6, %21 ]
  ret ptr %.0
}